target datalayout = "e-m:e-p270:32:32-p271:32:32-p272:64:64-i64:64-i128:128-f80:128-n8:16:32:64-S128"
target triple = "x86_64-pc-linux-gnu"

%struct.mbedtls_x509_crt = type { i32, %struct.mbedtls_asn1_buf, %struct.mbedtls_asn1_buf, i32, %struct.mbedtls_asn1_buf, %struct.mbedtls_asn1_buf, %struct.mbedtls_asn1_buf, %struct.mbedtls_asn1_buf, %struct.mbedtls_asn1_named_data, %struct.mbedtls_asn1_named_data, %struct.mbedtls_x509_time, %struct.mbedtls_x509_time, %struct.mbedtls_asn1_buf, %struct.mbedtls_pk_context, %struct.mbedtls_asn1_buf, %struct.mbedtls_asn1_buf, %struct.mbedtls_asn1_buf, %struct.mbedtls_asn1_sequence, %struct.mbedtls_asn1_buf, %struct.mbedtls_x509_authority, %struct.mbedtls_asn1_sequence, i32, i32, i32, i32, %struct.mbedtls_asn1_sequence, i8, %struct.mbedtls_asn1_buf, i32, i32, ptr, ptr }
%struct.mbedtls_asn1_named_data = type { %struct.mbedtls_asn1_buf, %struct.mbedtls_asn1_buf, ptr, i8 }
%struct.mbedtls_x509_time = type { i32, i32, i32, i32, i32, i32 }
%struct.mbedtls_pk_context = type { ptr, ptr }
%struct.mbedtls_x509_authority = type { %struct.mbedtls_asn1_buf, %struct.mbedtls_asn1_sequence, %struct.mbedtls_asn1_buf, %struct.mbedtls_asn1_buf }
%struct.mbedtls_asn1_sequence = type { %struct.mbedtls_asn1_buf, ptr }
%struct.mbedtls_asn1_buf = type { i32, i64, ptr }

@.str.24 = private unnamed_addr constant [5 x i8] c"U\1D%\00\00", align 1

; Function Attrs: nounwind uwtable
define hidden i32 @mbedtls_x509_crt_check_extended_key_usage(ptr noundef %0, ptr noundef %1, i64 noundef %2) #0 {
  %4 = alloca i32, align 4
  %5 = alloca ptr, align 8
  %6 = alloca ptr, align 8
  %7 = alloca i64, align 8
  %8 = alloca ptr, align 8
  %9 = alloca i32, align 4
  %10 = alloca ptr, align 8
  store ptr %0, ptr %5, align 8, !tbaa !3
  store ptr %1, ptr %6, align 8, !tbaa !8
  store i64 %2, ptr %7, align 8, !tbaa !10
  call void @llvm.lifetime.start.p0(i64 8, ptr %8) #10
  %11 = load ptr, ptr %5, align 8, !tbaa !3
  %12 = getelementptr inbounds nuw %struct.mbedtls_x509_crt, ptr %11, i32 0, i32 21
  %13 = load i32, ptr %12, align 8, !tbaa !57
  %14 = and i32 %13, 2048
  %15 = icmp eq i32 %14, 0
  br i1 %15, label %16, label %17

16:                                               ; preds = %3
  store i32 0, ptr %4, align 4
  store i32 1, ptr %9, align 4
  br label %68

17:                                               ; preds = %3
  %18 = load ptr, ptr %5, align 8, !tbaa !3
  %19 = getelementptr inbounds nuw %struct.mbedtls_x509_crt, ptr %18, i32 0, i32 25
  store ptr %19, ptr %8, align 8, !tbaa !67
  br label %20

20:                                               ; preds = %63, %17
  %21 = load ptr, ptr %8, align 8, !tbaa !67
  %22 = icmp ne ptr %21, null
  br i1 %22, label %23, label %67

23:                                               ; preds = %20
  call void @llvm.lifetime.start.p0(i64 8, ptr %10) #10
  %24 = load ptr, ptr %8, align 8, !tbaa !67
  %25 = getelementptr inbounds nuw %struct.mbedtls_asn1_sequence, ptr %24, i32 0, i32 0
  store ptr %25, ptr %10, align 8, !tbaa !77
  %26 = load ptr, ptr %10, align 8, !tbaa !77
  %27 = getelementptr inbounds nuw %struct.mbedtls_asn1_buf, ptr %26, i32 0, i32 1
  %28 = load i64, ptr %27, align 8, !tbaa !79
  %29 = load i64, ptr %7, align 8, !tbaa !10
  %30 = icmp eq i64 %28, %29
  br i1 %30, label %31, label %40

31:                                               ; preds = %23
  %32 = load ptr, ptr %10, align 8, !tbaa !77
  %33 = getelementptr inbounds nuw %struct.mbedtls_asn1_buf, ptr %32, i32 0, i32 2
  %34 = load ptr, ptr %33, align 8, !tbaa !80
  %35 = load ptr, ptr %6, align 8, !tbaa !8
  %36 = load i64, ptr %7, align 8, !tbaa !10
  %37 = call i32 @memcmp(ptr noundef %34, ptr noundef %35, i64 noundef %36) #12
  %38 = icmp eq i32 %37, 0
  br i1 %38, label %39, label %40

39:                                               ; preds = %31
  store i32 0, ptr %4, align 4
  store i32 1, ptr %9, align 4
  br label %60

40:                                               ; preds = %31, %23
  %41 = load ptr, ptr %10, align 8, !tbaa !77
  %42 = getelementptr inbounds nuw %struct.mbedtls_asn1_buf, ptr %41, i32 0, i32 1
  %43 = load i64, ptr %42, align 8, !tbaa !79
  %44 = icmp ne i64 4, %43
  br i1 %44, label %54, label %45

45:                                               ; preds = %40
  %46 = load ptr, ptr %10, align 8, !tbaa !77
  %47 = getelementptr inbounds nuw %struct.mbedtls_asn1_buf, ptr %46, i32 0, i32 2
  %48 = load ptr, ptr %47, align 8, !tbaa !80
  %49 = load ptr, ptr %10, align 8, !tbaa !77
  %50 = getelementptr inbounds nuw %struct.mbedtls_asn1_buf, ptr %49, i32 0, i32 1
  %51 = load i64, ptr %50, align 8, !tbaa !79
  %52 = call i32 @memcmp(ptr noundef @.str.24, ptr noundef %48, i64 noundef %51) #12
  %53 = icmp ne i32 %52, 0
  br label %54

54:                                               ; preds = %45, %40
  %55 = phi i1 [ true, %40 ], [ %53, %45 ]
  %56 = zext i1 %55 to i32
  %57 = icmp eq i32 %56, 0
  br i1 %57, label %58, label %59

58:                                               ; preds = %54
  store i32 0, ptr %4, align 4
  store i32 1, ptr %9, align 4
  br label %60

59:                                               ; preds = %54
  store i32 0, ptr %9, align 4
  br label %60

60:                                               ; preds = %59, %58, %39
  call void @llvm.lifetime.end.p0(i64 8, ptr %10) #10
  %61 = load i32, ptr %9, align 4
  switch i32 %61, label %68 [
    i32 0, label %62
  ]

62:                                               ; preds = %60
  br label %63

63:                                               ; preds = %62
  %64 = load ptr, ptr %8, align 8, !tbaa !67
  %65 = getelementptr inbounds nuw %struct.mbedtls_asn1_sequence, ptr %64, i32 0, i32 1
  %66 = load ptr, ptr %65, align 8, !tbaa !68
  store ptr %66, ptr %8, align 8, !tbaa !67
  br label %20, !llvm.loop !81

67:                                               ; preds = %20
  store i32 -10240, ptr %4, align 4
  store i32 1, ptr %9, align 4
  br label %68

68:                                               ; preds = %67, %60, %16
  call void @llvm.lifetime.end.p0(i64 8, ptr %8) #10
  %69 = load i32, ptr %4, align 4
  ret i32 %69
}