; Function Attrs: nofree nounwind memory(read, inaccessiblemem: none) uwtable
define hidden range(i32 -10240, 1) i32 @mbedtls_x509_crt_check_extended_key_usage(ptr noundef readonly captures(none) %0, ptr noundef readonly captures(none) %1, i64 noundef %2) local_unnamed_addr #9 {
  %4 = getelementptr inbounds nuw i8, ptr %0, i64 640
  %5 = load i32, ptr %4, align 8, !tbaa !67
  %6 = and i32 %5, 2048
  %7 = icmp eq i32 %6, 0
  br i1 %7, label %.critedge, label %8

8:                                                ; preds = %3
  %9 = getelementptr inbounds nuw i8, ptr %0, i64 656
  br label %10

10:                                               ; preds = %8, %.thread
  %.01523 = phi ptr [ %9, %8 ], [ %23, %.thread ]
  %11 = getelementptr inbounds nuw i8, ptr %.01523, i64 8
  %12 = load i64, ptr %11, align 8, !tbaa !39
  %13 = icmp eq i64 %12, %2
  br i1 %13, label %14, label %18

14:                                               ; preds = %10
  %15 = getelementptr inbounds nuw i8, ptr %.01523, i64 16
  %16 = load ptr, ptr %15, align 8, !tbaa !41
  %bcmp = tail call i32 @bcmp(ptr %16, ptr %1, i64 %2)
  %17 = icmp eq i32 %bcmp, 0
  br i1 %17, label %.critedge, label %18

18:                                               ; preds = %14, %10
  %.not18 = icmp eq i64 %12, 4
  br i1 %.not18, label %19, label %.thread

19:                                               ; preds = %18
  %20 = getelementptr inbounds nuw i8, ptr %.01523, i64 16
  %21 = load ptr, ptr %20, align 8, !tbaa !41
  %bcmp19 = tail call i32 @bcmp(ptr noundef nonnull dereferenceable(4) @.str.24, ptr noundef nonnull dereferenceable(4) %21, i64 4)
  %bcmp19.fr = freeze i32 %bcmp19
  %.not20 = icmp eq i32 %bcmp19.fr, 0
  br i1 %.not20, label %.critedge, label %.thread

.thread:                                          ; preds = %18, %19
  %22 = getelementptr inbounds nuw i8, ptr %.01523, i64 24
  %23 = load ptr, ptr %22, align 8, !tbaa !72
  %.not = icmp eq ptr %23, null
  br i1 %.not, label %.critedge, label %10, !llvm.loop !79

.critedge:                                        ; preds = %19, %14, %.thread, %3
  %.0 = phi i32 [ 0, %3 ], [ 0, %19 ], [ 0, %14 ], [ -10240, %.thread ]
  ret i32 %.0
}